target datalayout = "e-m:e-p270:32:32-p271:32:32-p272:64:64-i64:64-i128:128-f80:128-n8:16:32:64-S128"
target triple = "x86_64-pc-linux-gnu"

%class.VectorFilter = type <{ %class.Filter, %"class.std::vector", ptr, i32, [4 x i8] }>
%class.Filter = type { ptr, %"class.std::bitset" }
%"class.std::bitset" = type { %"struct.std::_Base_bitset" }
%"struct.std::_Base_bitset" = type { i64 }
%"class.std::vector" = type { %"struct.std::_Vector_base" }
%"struct.std::_Vector_base" = type { %"struct.std::_Vector_base<unsigned int, std::allocator<unsigned int>>::_Vector_impl" }
%"struct.std::_Vector_base<unsigned int, std::allocator<unsigned int>>::_Vector_impl" = type { %"struct.std::_Vector_base<unsigned int, std::allocator<unsigned int>>::_Vector_impl_data" }
%"struct.std::_Vector_base<unsigned int, std::allocator<unsigned int>>::_Vector_impl_data" = type { ptr, ptr, ptr }

; Function Attrs: mustprogress uwtable
define dso_local noundef i32 @_ZNK12VectorFilter6lookupEi(ptr noundef nonnull align 8 dereferenceable(52) %0, i32 noundef %1) #0 align 2 {
  %3 = alloca i32, align 4
  %4 = alloca ptr, align 8
  %5 = alloca i32, align 4
  store ptr %0, ptr %4, align 8
  store i32 %1, ptr %5, align 4
  %6 = load ptr, ptr %4, align 8
  %7 = call noundef zeroext i1 @_ZNK6Filter12valid_filterEv(ptr noundef nonnull align 8 dereferenceable(16) %6)
  br i1 %7, label %8, label %12

8:                                                ; preds = %2
  %9 = getelementptr inbounds %class.VectorFilter, ptr %6, i32 0, i32 2
  %10 = load ptr, ptr %9, align 8
  %11 = icmp eq ptr %10, null
  br i1 %11, label %12, label %14

12:                                               ; preds = %8, %2
  %13 = load i32, ptr %5, align 4
  store i32 %13, ptr %3, align 4
  br label %19

14:                                               ; preds = %8
  %15 = getelementptr inbounds %class.VectorFilter, ptr %6, i32 0, i32 2
  %16 = load ptr, ptr %15, align 8
  %17 = load i32, ptr %5, align 4
  %18 = call noundef i32 @_ZNK17DistributionTable14rnd_num_to_keyEi(ptr noundef nonnull align 8 dereferenceable(56) %16, i32 noundef %17)
  store i32 %18, ptr %5, align 4
  store i32 %18, ptr %3, align 4
  br label %19

19:                                               ; preds = %14, %12
  %20 = load i32, ptr %3, align 4
  ret i32 %20
}