; Function Attrs: mustprogress uwtable
define dso_local noundef i32 @_ZNK12VectorFilter6lookupEi(ptr noundef nonnull align 8 dereferenceable(52) %0, i32 noundef %1) local_unnamed_addr #0 align 2 {
  %3 = tail call noundef zeroext i1 @_ZNK6Filter12valid_filterEv(ptr noundef nonnull align 8 dereferenceable(16) %0)
  br i1 %3, label %4, label %10

4:                                                ; preds = %2
  %5 = getelementptr inbounds i8, ptr %0, i64 40
  %6 = load ptr, ptr %5, align 8
  %7 = icmp eq ptr %6, null
  br i1 %7, label %10, label %8

8:                                                ; preds = %4
  %9 = tail call noundef i32 @_ZNK17DistributionTable14rnd_num_to_keyEi(ptr noundef nonnull align 8 dereferenceable(56) %6, i32 noundef %1)
  br label %10

10:                                               ; preds = %2, %4, %8
  %.0 = phi i32 [ %9, %8 ], [ %1, %4 ], [ %1, %2 ]
  ret i32 %.0
}